target datalayout = "e-m:e-p270:32:32-p271:32:32-p272:64:64-i64:64-i128:128-f80:128-n8:16:32:64-S128"
target triple = "x86_64-pc-linux-gnu"

%struct.AVFilterFormatsConfig = type { ptr, ptr, ptr, ptr, ptr }
%struct.AVFilterLink = type { ptr, ptr, ptr, ptr, i32, i32, i32, i32, %struct.AVRational, i32, i32, i32, %struct.AVChannelLayout, %struct.AVRational, ptr, i32, %struct.AVFilterFormatsConfig, %struct.AVFilterFormatsConfig }
%struct.AVChannelLayout = type { i32, i32, %union.anon.1, ptr }
%union.anon.1 = type { i64 }
%struct.AVRational = type { i32, i32 }
%struct.AVFilterContext = type { ptr, ptr, ptr, ptr, ptr, i32, ptr, ptr, i32, ptr, ptr, i32, i32, ptr, ptr, ptr, ptr, i32, ptr, i32, i32 }
%struct.ShowPaletteContext = type { ptr, i32 }
%struct.AVFrame = type { [8 x ptr], [8 x i32], ptr, i32, i32, i32, i32, i32, %struct.AVRational, i64, i64, %struct.AVRational, i32, ptr, i32, i32, [8 x ptr], ptr, i32, ptr, i32, i32, i32, i32, i32, i32, i32, i64, ptr, i32, ptr, ptr, i64, i64, i64, i64, ptr, %struct.AVChannelLayout, i64 }

; Function Attrs: nounwind uwtable
define internal void @disp_palette(ptr noundef %0, ptr noundef %1, i32 noundef %2) #0 {
  %4 = alloca ptr, align 8
  %5 = alloca ptr, align 8
  %6 = alloca i32, align 4
  %7 = alloca i32, align 4
  %8 = alloca i32, align 4
  %9 = alloca i32, align 4
  %10 = alloca i32, align 4
  %11 = alloca ptr, align 8
  %12 = alloca i32, align 4
  %13 = alloca ptr, align 8
  store ptr %0, ptr %4, align 8, !tbaa !18
  store ptr %1, ptr %5, align 8, !tbaa !18
  store i32 %2, ptr %6, align 4, !tbaa !14
  call void @llvm.lifetime.start.p0(i64 4, ptr %7) #3
  call void @llvm.lifetime.start.p0(i64 4, ptr %8) #3
  call void @llvm.lifetime.start.p0(i64 4, ptr %9) #3
  call void @llvm.lifetime.start.p0(i64 4, ptr %10) #3
  call void @llvm.lifetime.start.p0(i64 8, ptr %11) #3
  %14 = load ptr, ptr %4, align 8, !tbaa !18
  %15 = getelementptr inbounds nuw %struct.AVFrame, ptr %14, i32 0, i32 0
  %16 = getelementptr inbounds [8 x ptr], ptr %15, i64 0, i64 0
  %17 = load ptr, ptr %16, align 8, !tbaa !46
  store ptr %17, ptr %11, align 8, !tbaa !47
  call void @llvm.lifetime.start.p0(i64 4, ptr %12) #3
  %18 = load ptr, ptr %4, align 8, !tbaa !18
  %19 = getelementptr inbounds nuw %struct.AVFrame, ptr %18, i32 0, i32 1
  %20 = getelementptr inbounds [8 x i32], ptr %19, i64 0, i64 0
  %21 = load i32, ptr %20, align 8, !tbaa !14
  %22 = ashr i32 %21, 2
  store i32 %22, ptr %12, align 4, !tbaa !14
  call void @llvm.lifetime.start.p0(i64 8, ptr %13) #3
  %23 = load ptr, ptr %5, align 8, !tbaa !18
  %24 = getelementptr inbounds nuw %struct.AVFrame, ptr %23, i32 0, i32 0
  %25 = getelementptr inbounds [8 x ptr], ptr %24, i64 0, i64 1
  %26 = load ptr, ptr %25, align 8, !tbaa !46
  store ptr %26, ptr %13, align 8, !tbaa !47
  store i32 0, ptr %8, align 4, !tbaa !14
  br label %27

27:                                               ; preds = %81, %3
  %28 = load i32, ptr %8, align 4, !tbaa !14
  %29 = icmp slt i32 %28, 16
  br i1 %29, label %30, label %84

30:                                               ; preds = %27
  store i32 0, ptr %7, align 4, !tbaa !14
  br label %31

31:                                               ; preds = %77, %30
  %32 = load i32, ptr %7, align 4, !tbaa !14
  %33 = icmp slt i32 %32, 16
  br i1 %33, label %34, label %80

34:                                               ; preds = %31
  store i32 0, ptr %10, align 4, !tbaa !14
  br label %35

35:                                               ; preds = %73, %34
  %36 = load i32, ptr %10, align 4, !tbaa !14
  %37 = load i32, ptr %6, align 4, !tbaa !14
  %38 = icmp slt i32 %36, %37
  br i1 %38, label %39, label %76

39:                                               ; preds = %35
  store i32 0, ptr %9, align 4, !tbaa !14
  br label %40

40:                                               ; preds = %69, %39
  %41 = load i32, ptr %9, align 4, !tbaa !14
  %42 = load i32, ptr %6, align 4, !tbaa !14
  %43 = icmp slt i32 %41, %42
  br i1 %43, label %44, label %72

44:                                               ; preds = %40
  %45 = load ptr, ptr %13, align 8, !tbaa !47
  %46 = load i32, ptr %8, align 4, !tbaa !14
  %47 = mul nsw i32 %46, 16
  %48 = load i32, ptr %7, align 4, !tbaa !14
  %49 = add nsw i32 %47, %48
  %50 = sext i32 %49 to i64
  %51 = getelementptr inbounds i32, ptr %45, i64 %50
  %52 = load i32, ptr %51, align 4, !tbaa !14
  %53 = load ptr, ptr %11, align 8, !tbaa !47
  %54 = load i32, ptr %8, align 4, !tbaa !14
  %55 = load i32, ptr %12, align 4, !tbaa !14
  %56 = mul nsw i32 %54, %55
  %57 = load i32, ptr %7, align 4, !tbaa !14
  %58 = add nsw i32 %56, %57
  %59 = load i32, ptr %6, align 4, !tbaa !14
  %60 = mul nsw i32 %58, %59
  %61 = load i32, ptr %10, align 4, !tbaa !14
  %62 = load i32, ptr %12, align 4, !tbaa !14
  %63 = mul nsw i32 %61, %62
  %64 = add nsw i32 %60, %63
  %65 = load i32, ptr %9, align 4, !tbaa !14
  %66 = add nsw i32 %64, %65
  %67 = sext i32 %66 to i64
  %68 = getelementptr inbounds i32, ptr %53, i64 %67
  store i32 %52, ptr %68, align 4, !tbaa !14
  br label %69

69:                                               ; preds = %44
  %70 = load i32, ptr %9, align 4, !tbaa !14
  %71 = add nsw i32 %70, 1
  store i32 %71, ptr %9, align 4, !tbaa !14
  br label %40, !llvm.loop !49

72:                                               ; preds = %40
  br label %73

73:                                               ; preds = %72
  %74 = load i32, ptr %10, align 4, !tbaa !14
  %75 = add nsw i32 %74, 1
  store i32 %75, ptr %10, align 4, !tbaa !14
  br label %35, !llvm.loop !51

76:                                               ; preds = %35
  br label %77

77:                                               ; preds = %76
  %78 = load i32, ptr %7, align 4, !tbaa !14
  %79 = add nsw i32 %78, 1
  store i32 %79, ptr %7, align 4, !tbaa !14
  br label %31, !llvm.loop !52

80:                                               ; preds = %31
  br label %81

81:                                               ; preds = %80
  %82 = load i32, ptr %8, align 4, !tbaa !14
  %83 = add nsw i32 %82, 1
  store i32 %83, ptr %8, align 4, !tbaa !14
  br label %27, !llvm.loop !53

84:                                               ; preds = %27
  call void @llvm.lifetime.end.p0(i64 8, ptr %13) #3
  call void @llvm.lifetime.end.p0(i64 4, ptr %12) #3
  call void @llvm.lifetime.end.p0(i64 8, ptr %11) #3
  call void @llvm.lifetime.end.p0(i64 4, ptr %10) #3
  call void @llvm.lifetime.end.p0(i64 4, ptr %9) #3
  call void @llvm.lifetime.end.p0(i64 4, ptr %8) #3
  call void @llvm.lifetime.end.p0(i64 4, ptr %7) #3
  ret void
}

; Function Attrs: nounwind uwtable
define internal i32 @filter_frame(ptr noundef %0, ptr noundef %1) #0 {
  %3 = alloca i32, align 4
  %4 = alloca ptr, align 8
  %5 = alloca ptr, align 8
  %6 = alloca ptr, align 8
  %7 = alloca ptr, align 8
  %8 = alloca ptr, align 8
  %9 = alloca ptr, align 8
  %10 = alloca i32, align 4
  store ptr %0, ptr %4, align 8, !tbaa !16
  store ptr %1, ptr %5, align 8, !tbaa !18
  call void @llvm.lifetime.start.p0(i64 8, ptr %6) #3
  call void @llvm.lifetime.start.p0(i64 8, ptr %7) #3
  %11 = load ptr, ptr %4, align 8, !tbaa !16
  %12 = getelementptr inbounds nuw %struct.AVFilterLink, ptr %11, i32 0, i32 2
  %13 = load ptr, ptr %12, align 8, !tbaa !20
  store ptr %13, ptr %7, align 8, !tbaa !4
  call void @llvm.lifetime.start.p0(i64 8, ptr %8) #3
  %14 = load ptr, ptr %7, align 8, !tbaa !4
  %15 = getelementptr inbounds nuw %struct.AVFilterContext, ptr %14, i32 0, i32 9
  %16 = load ptr, ptr %15, align 8, !tbaa !29
  store ptr %16, ptr %8, align 8, !tbaa !39
  call void @llvm.lifetime.start.p0(i64 8, ptr %9) #3
  %17 = load ptr, ptr %7, align 8, !tbaa !4
  %18 = getelementptr inbounds nuw %struct.AVFilterContext, ptr %17, i32 0, i32 7
  %19 = load ptr, ptr %18, align 8, !tbaa !41
  %20 = getelementptr inbounds ptr, ptr %19, i64 0
  %21 = load ptr, ptr %20, align 8, !tbaa !16
  store ptr %21, ptr %9, align 8, !tbaa !16
  %22 = load ptr, ptr %9, align 8, !tbaa !16
  %23 = load ptr, ptr %9, align 8, !tbaa !16
  %24 = getelementptr inbounds nuw %struct.AVFilterLink, ptr %23, i32 0, i32 6
  %25 = load i32, ptr %24, align 8, !tbaa !42
  %26 = load ptr, ptr %9, align 8, !tbaa !16
  %27 = getelementptr inbounds nuw %struct.AVFilterLink, ptr %26, i32 0, i32 7
  %28 = load i32, ptr %27, align 4, !tbaa !43
  %29 = call ptr @ff_get_video_buffer(ptr noundef %22, i32 noundef %25, i32 noundef %28)
  store ptr %29, ptr %6, align 8, !tbaa !18
  %30 = load ptr, ptr %6, align 8, !tbaa !18
  %31 = icmp ne ptr %30, null
  br i1 %31, label %33, label %32

32:                                               ; preds = %2
  call void @av_frame_free(ptr noundef %5)
  store i32 -12, ptr %3, align 4
  store i32 1, ptr %10, align 4
  br label %45

33:                                               ; preds = %2
  %34 = load ptr, ptr %6, align 8, !tbaa !18
  %35 = load ptr, ptr %5, align 8, !tbaa !18
  %36 = call i32 @av_frame_copy_props(ptr noundef %34, ptr noundef %35)
  %37 = load ptr, ptr %6, align 8, !tbaa !18
  %38 = load ptr, ptr %5, align 8, !tbaa !18
  %39 = load ptr, ptr %8, align 8, !tbaa !39
  %40 = getelementptr inbounds nuw %struct.ShowPaletteContext, ptr %39, i32 0, i32 1
  %41 = load i32, ptr %40, align 8, !tbaa !44
  call void @disp_palette(ptr noundef %37, ptr noundef %38, i32 noundef %41)
  call void @av_frame_free(ptr noundef %5)
  %42 = load ptr, ptr %9, align 8, !tbaa !16
  %43 = load ptr, ptr %6, align 8, !tbaa !18
  %44 = call i32 @ff_filter_frame(ptr noundef %42, ptr noundef %43)
  store i32 %44, ptr %3, align 4
  store i32 1, ptr %10, align 4
  br label %45

45:                                               ; preds = %33, %32
  call void @llvm.lifetime.end.p0(i64 8, ptr %9) #3
  call void @llvm.lifetime.end.p0(i64 8, ptr %8) #3
  call void @llvm.lifetime.end.p0(i64 8, ptr %7) #3
  call void @llvm.lifetime.end.p0(i64 8, ptr %6) #3
  %46 = load i32, ptr %3, align 4
  ret i32 %46
}