; Function Attrs: nounwind uwtable
define internal i32 @filter_frame(ptr noundef readonly captures(none) %0, ptr noundef %1) #0 {
  %3 = alloca ptr, align 8
  store ptr %1, ptr %3, align 8, !tbaa !9
  %4 = getelementptr inbounds nuw i8, ptr %0, i64 16
  %5 = load ptr, ptr %4, align 8, !tbaa !11
  %6 = getelementptr inbounds nuw i8, ptr %5, i64 72
  %7 = load ptr, ptr %6, align 8, !tbaa !23
  %8 = getelementptr inbounds nuw i8, ptr %5, i64 56
  %9 = load ptr, ptr %8, align 8, !tbaa !33
  %10 = load ptr, ptr %9, align 8, !tbaa !34
  %11 = getelementptr inbounds nuw i8, ptr %10, i64 40
  %12 = load i32, ptr %11, align 8, !tbaa !36
  %13 = getelementptr inbounds nuw i8, ptr %10, i64 44
  %14 = load i32, ptr %13, align 4, !tbaa !37
  %15 = tail call ptr @ff_get_video_buffer(ptr noundef %10, i32 noundef %12, i32 noundef %14) #3
  %.not = icmp eq ptr %15, null
  br i1 %.not, label %16, label %17

16:                                               ; preds = %2
  call void @av_frame_free(ptr noundef nonnull %3) #3
  br label %34

17:                                               ; preds = %2
  %18 = tail call i32 @av_frame_copy_props(ptr noundef nonnull %15, ptr noundef %1) #3
  %19 = getelementptr inbounds nuw i8, ptr %7, i64 8
  %20 = load i32, ptr %19, align 8, !tbaa !38
  %.val = load ptr, ptr %15, align 8, !tbaa !40
  %21 = getelementptr i8, ptr %1, i64 8
  %.val14 = load ptr, ptr %21, align 8, !tbaa !40
  %22 = icmp sgt i32 %20, 0
  br i1 %22, label %.preheader2.us.preheader.i, label %disp_palette.exit

.preheader2.us.preheader.i:                       ; preds = %17
  %23 = getelementptr i8, ptr %15, i64 64
  %.val13 = load i32, ptr %23, align 8, !tbaa !41
  %24 = ashr i32 %.val13, 2
  %25 = sext i32 %24 to i64
  %26 = zext nneg i32 %20 to i64
  br label %.preheader2.us.i

.preheader2.us.i:                                 ; preds = %.split.us.us.i, %.preheader2.us.preheader.i
  %indvars.iv22.i = phi i64 [ 0, %.preheader2.us.preheader.i ], [ %indvars.iv.next23.i, %.split.us.us.i ]
  %27 = mul nsw i64 %indvars.iv22.i, %25
  %.idx.i = shl nuw nsw i64 %indvars.iv22.i, 6
  %invariant.gep26.i = getelementptr inbounds nuw i8, ptr %.val14, i64 %.idx.i
  br label %.preheader1.us.us.i

.preheader1.us.us.i:                              ; preds = %._crit_edge5.split.us.us.us.i, %.preheader2.us.i
  %indvars.iv18.i = phi i64 [ %indvars.iv.next19.i, %._crit_edge5.split.us.us.us.i ], [ 0, %.preheader2.us.i ]
  %gep27.i = getelementptr inbounds nuw i32, ptr %invariant.gep26.i, i64 %indvars.iv18.i
  %28 = add nsw i64 %indvars.iv18.i, %27
  %29 = mul nsw i64 %28, %26
  %invariant.gep.i = getelementptr i32, ptr %.val, i64 %29
  br label %.preheader.us.us.us.i

.preheader.us.us.us.i:                            ; preds = %._crit_edge.us.us.us.i, %.preheader1.us.us.i
  %indvars.iv13.i = phi i64 [ %indvars.iv.next14.i, %._crit_edge.us.us.us.i ], [ 0, %.preheader1.us.us.i ]
  %30 = mul nsw i64 %indvars.iv13.i, %25
  %.pre.i = load i32, ptr %gep27.i, align 4, !tbaa !41
  %gep.i = getelementptr i32, ptr %invariant.gep.i, i64 %30
  br label %31

31:                                               ; preds = %31, %.preheader.us.us.us.i
  %indvars.iv.i = phi i64 [ %indvars.iv.next.i, %31 ], [ 0, %.preheader.us.us.us.i ]
  %32 = getelementptr i32, ptr %gep.i, i64 %indvars.iv.i
  store i32 %.pre.i, ptr %32, align 4, !tbaa !41
  %indvars.iv.next.i = add nuw nsw i64 %indvars.iv.i, 1
  %exitcond.not.i = icmp eq i64 %indvars.iv.next.i, %26
  br i1 %exitcond.not.i, label %._crit_edge.us.us.us.i, label %31, !llvm.loop !42

._crit_edge.us.us.us.i:                           ; preds = %31
  %indvars.iv.next14.i = add nuw nsw i64 %indvars.iv13.i, 1
  %exitcond17.not.i = icmp eq i64 %indvars.iv.next14.i, %26
  br i1 %exitcond17.not.i, label %._crit_edge5.split.us.us.us.i, label %.preheader.us.us.us.i, !llvm.loop !44

._crit_edge5.split.us.us.us.i:                    ; preds = %._crit_edge.us.us.us.i
  %indvars.iv.next19.i = add nuw nsw i64 %indvars.iv18.i, 1
  %exitcond21.not.i = icmp eq i64 %indvars.iv.next19.i, 16
  br i1 %exitcond21.not.i, label %.split.us.us.i, label %.preheader1.us.us.i, !llvm.loop !45

.split.us.us.i:                                   ; preds = %._crit_edge5.split.us.us.us.i
  %indvars.iv.next23.i = add nuw nsw i64 %indvars.iv22.i, 1
  %exitcond25.not.i = icmp eq i64 %indvars.iv.next23.i, 16
  br i1 %exitcond25.not.i, label %disp_palette.exit, label %.preheader2.us.i, !llvm.loop !46

disp_palette.exit:                                ; preds = %.split.us.us.i, %17
  call void @av_frame_free(ptr noundef nonnull %3) #3
  %33 = call i32 @ff_filter_frame(ptr noundef %10, ptr noundef nonnull %15) #3
  br label %34

34:                                               ; preds = %disp_palette.exit, %16
  %.0 = phi i32 [ %33, %disp_palette.exit ], [ -12, %16 ]
  ret i32 %.0
}